target datalayout = "e-m:e-p270:32:32-p271:32:32-p272:64:64-i64:64-i128:128-f80:128-n8:16:32:64-S128"
target triple = "x86_64-pc-linux-gnu"

%struct.pg_uuid_t = type { [16 x i8] }
%struct.SortSupportData = type { ptr, i32, i8, i8, i16, ptr, ptr, i8, ptr, ptr, ptr }
%struct.uuid_sortsupport_state = type { i64, i8, %struct.hyperLogLogState }
%struct.hyperLogLogState = type { i8, i64, double, ptr, i64 }

; Function Attrs: inlinehint nounwind uwtable
define internal i64 @UInt32GetDatum(i32 noundef %0) #2 {
  %2 = alloca i32, align 4
  store i32 %0, ptr %2, align 4
  %3 = load i32, ptr %2, align 4
  %4 = zext i32 %3 to i64
  ret i64 %4
}

; Function Attrs: inlinehint nounwind uwtable
define internal ptr @DatumGetPointer(i64 noundef %0) #2 {
  %2 = alloca i64, align 8
  store i64 %0, ptr %2, align 8
  %3 = load i64, ptr %2, align 8
  %4 = inttoptr i64 %3 to ptr
  ret ptr %4
}

; Function Attrs: inlinehint nounwind uwtable
define internal i32 @DatumGetUInt32(i64 noundef %0) #2 {
  %2 = alloca i64, align 8
  store i64 %0, ptr %2, align 8
  %3 = load i64, ptr %2, align 8
  %4 = trunc i64 %3 to i32
  ret i32 %4
}

; Function Attrs: inlinehint nounwind uwtable
define internal i64 @hash_uint32(i32 noundef %0) #2 {
  %2 = alloca i32, align 4
  store i32 %0, ptr %2, align 4
  %3 = load i32, ptr %2, align 4
  %4 = call i32 @hash_bytes_uint32(i32 noundef %3)
  %5 = call i64 @UInt32GetDatum(i32 noundef %4)
  ret i64 %5
}

; Function Attrs: inlinehint nounwind uwtable
define internal ptr @DatumGetUUIDP(i64 noundef %0) #2 {
  %2 = alloca i64, align 8
  store i64 %0, ptr %2, align 8
  %3 = load i64, ptr %2, align 8
  %4 = call ptr @DatumGetPointer(i64 noundef %3)
  ret ptr %4
}

; Function Attrs: nounwind uwtable
define internal i64 @uuid_abbrev_convert(i64 noundef %0, ptr noundef %1) #0 {
  %3 = alloca i64, align 8
  %4 = alloca ptr, align 8
  %5 = alloca ptr, align 8
  %6 = alloca ptr, align 8
  %7 = alloca i64, align 8
  %8 = alloca i32, align 4
  store i64 %0, ptr %3, align 8
  store ptr %1, ptr %4, align 8
  call void @llvm.lifetime.start.p0(i64 8, ptr %5) #10
  %9 = load ptr, ptr %4, align 8
  %10 = getelementptr inbounds nuw %struct.SortSupportData, ptr %9, i32 0, i32 5
  %11 = load ptr, ptr %10, align 8
  store ptr %11, ptr %5, align 8
  call void @llvm.lifetime.start.p0(i64 8, ptr %6) #10
  %12 = load i64, ptr %3, align 8
  %13 = call ptr @DatumGetUUIDP(i64 noundef %12)
  store ptr %13, ptr %6, align 8
  call void @llvm.lifetime.start.p0(i64 8, ptr %7) #10
  %14 = load ptr, ptr %6, align 8
  %15 = getelementptr inbounds nuw %struct.pg_uuid_t, ptr %14, i32 0, i32 0
  %16 = getelementptr inbounds [16 x i8], ptr %15, i64 0, i64 0
  call void @llvm.memcpy.p0.p0.i64(ptr align 8 %7, ptr align 1 %16, i64 8, i1 false)
  %17 = load ptr, ptr %5, align 8
  %18 = getelementptr inbounds nuw %struct.uuid_sortsupport_state, ptr %17, i32 0, i32 0
  %19 = load i64, ptr %18, align 8
  %20 = add i64 %19, 1
  store i64 %20, ptr %18, align 8
  %21 = load ptr, ptr %5, align 8
  %22 = getelementptr inbounds nuw %struct.uuid_sortsupport_state, ptr %21, i32 0, i32 1
  %23 = load i8, ptr %22, align 8, !range !6, !noundef !7
  %24 = trunc i8 %23 to i1
  br i1 %24, label %25, label %37

25:                                               ; preds = %2
  call void @llvm.lifetime.start.p0(i64 4, ptr %8) #10
  %26 = load i64, ptr %7, align 8
  %27 = trunc i64 %26 to i32
  %28 = load i64, ptr %7, align 8
  %29 = lshr i64 %28, 32
  %30 = trunc i64 %29 to i32
  %31 = xor i32 %27, %30
  store i32 %31, ptr %8, align 4
  %32 = load ptr, ptr %5, align 8
  %33 = getelementptr inbounds nuw %struct.uuid_sortsupport_state, ptr %32, i32 0, i32 2
  %34 = load i32, ptr %8, align 4
  %35 = call i64 @hash_uint32(i32 noundef %34)
  %36 = call i32 @DatumGetUInt32(i64 noundef %35)
  call void @addHyperLogLog(ptr noundef %33, i32 noundef %36)
  call void @llvm.lifetime.end.p0(i64 4, ptr %8) #10
  br label %37

37:                                               ; preds = %25, %2
  %38 = load i64, ptr %7, align 8
  %39 = call i64 @llvm.bswap.i64(i64 %38)
  store i64 %39, ptr %7, align 8
  %40 = load i64, ptr %7, align 8
  call void @llvm.lifetime.end.p0(i64 8, ptr %7) #10
  call void @llvm.lifetime.end.p0(i64 8, ptr %6) #10
  call void @llvm.lifetime.end.p0(i64 8, ptr %5) #10
  ret i64 %40
}