; Function Attrs: nounwind uwtable
define internal i64 @uuid_abbrev_convert(i64 noundef %0, ptr noundef readonly captures(none) %1) #0 {
  %3 = getelementptr inbounds nuw i8, ptr %1, i64 16
  %4 = load ptr, ptr %3, align 8
  %5 = inttoptr i64 %0 to ptr
  %.0.copyload = load i64, ptr %5, align 1
  %6 = load i64, ptr %4, align 8
  %7 = add i64 %6, 1
  store i64 %7, ptr %4, align 8
  %8 = getelementptr inbounds nuw i8, ptr %4, i64 8
  %9 = load i8, ptr %8, align 8, !range !7, !noundef !8
  %10 = trunc nuw i8 %9 to i1
  br i1 %10, label %11, label %17

11:                                               ; preds = %2
  %12 = lshr i64 %.0.copyload, 32
  %13 = xor i64 %12, %.0.copyload
  %14 = trunc i64 %13 to i32
  %15 = getelementptr inbounds nuw i8, ptr %4, i64 16
  %16 = tail call i32 @hash_bytes_uint32(i32 noundef %14) #15
  tail call void @addHyperLogLog(ptr noundef nonnull %15, i32 noundef %16) #15
  br label %17

17:                                               ; preds = %11, %2
  %18 = tail call i64 @llvm.bswap.i64(i64 %.0.copyload)
  ret i64 %18
}